target datalayout = "e-m:e-p270:32:32-p271:32:32-p272:64:64-i64:64-i128:128-f80:128-n8:16:32:64-S128"
target triple = "x86_64-pc-linux-gnu"

%struct.CPpmd8 = type { ptr, ptr, ptr, i32, i32, i32, i32, i32, i32, i32, i32, ptr, ptr, ptr, ptr, ptr, i32, i32, i32, i32, i32, %union.anon, [38 x i8], [128 x i8], [38 x i32], [38 x i32], [256 x i8], [260 x i8], %struct.CPpmd_See, [24 x [32 x %struct.CPpmd_See]], [25 x [64 x i16]] }
%union.anon = type { ptr }
%struct.CPpmd_See = type { i16, i8, i8 }
%struct.IByteIn = type { ptr, ptr }

; Function Attrs: nounwind uwtable
define dso_local i32 @Ppmd8_RangeDec_Init(ptr noundef %0) #0 {
  %2 = alloca ptr, align 8
  %3 = alloca i32, align 4
  store ptr %0, ptr %2, align 8, !tbaa !4
  call void @llvm.lifetime.start.p0(i64 4, ptr %3) #6
  %4 = load ptr, ptr %2, align 8, !tbaa !4
  %5 = getelementptr inbounds nuw %struct.CPpmd8, ptr %4, i32 0, i32 20
  store i32 0, ptr %5, align 8, !tbaa !79
  %6 = load ptr, ptr %2, align 8, !tbaa !4
  %7 = getelementptr inbounds nuw %struct.CPpmd8, ptr %6, i32 0, i32 18
  store i32 -1, ptr %7, align 8, !tbaa !80
  %8 = load ptr, ptr %2, align 8, !tbaa !4
  %9 = getelementptr inbounds nuw %struct.CPpmd8, ptr %8, i32 0, i32 19
  store i32 0, ptr %9, align 4, !tbaa !81
  store i32 0, ptr %3, align 4, !tbaa !15
  br label %10

10:                                               ; preds = %31, %1
  %11 = load i32, ptr %3, align 4, !tbaa !15
  %12 = icmp ult i32 %11, 4
  br i1 %12, label %13, label %34

13:                                               ; preds = %10
  %14 = load ptr, ptr %2, align 8, !tbaa !4
  %15 = getelementptr inbounds nuw %struct.CPpmd8, ptr %14, i32 0, i32 19
  %16 = load i32, ptr %15, align 4, !tbaa !81
  %17 = shl i32 %16, 8
  %18 = load ptr, ptr %2, align 8, !tbaa !4
  %19 = getelementptr inbounds nuw %struct.CPpmd8, ptr %18, i32 0, i32 21
  %20 = load ptr, ptr %19, align 8, !tbaa !16
  %21 = getelementptr inbounds nuw %struct.IByteIn, ptr %20, i32 0, i32 1
  %22 = load ptr, ptr %21, align 8, !tbaa !82
  %23 = load ptr, ptr %2, align 8, !tbaa !4
  %24 = getelementptr inbounds nuw %struct.CPpmd8, ptr %23, i32 0, i32 21
  %25 = load ptr, ptr %24, align 8, !tbaa !16
  %26 = call zeroext i8 %22(ptr noundef %25)
  %27 = zext i8 %26 to i32
  %28 = or i32 %17, %27
  %29 = load ptr, ptr %2, align 8, !tbaa !4
  %30 = getelementptr inbounds nuw %struct.CPpmd8, ptr %29, i32 0, i32 19
  store i32 %28, ptr %30, align 4, !tbaa !81
  br label %31

31:                                               ; preds = %13
  %32 = load i32, ptr %3, align 4, !tbaa !15
  %33 = add i32 %32, 1
  store i32 %33, ptr %3, align 4, !tbaa !15
  br label %10, !llvm.loop !85

34:                                               ; preds = %10
  %35 = load ptr, ptr %2, align 8, !tbaa !4
  %36 = getelementptr inbounds nuw %struct.CPpmd8, ptr %35, i32 0, i32 19
  %37 = load i32, ptr %36, align 4, !tbaa !81
  %38 = icmp ult i32 %37, -1
  %39 = zext i1 %38 to i32
  call void @llvm.lifetime.end.p0(i64 4, ptr %3) #6
  ret i32 %39
}