; Function Attrs: nounwind uwtable
define dso_local range(i32 0, 2) i32 @Ppmd8_RangeDec_Init(ptr noundef captures(none) initializes((104, 116)) %0) #10 {
  %2 = getelementptr inbounds nuw i8, ptr %0, i64 112
  store i32 0, ptr %2, align 8, !tbaa !78
  %3 = getelementptr inbounds nuw i8, ptr %0, i64 104
  store i32 -1, ptr %3, align 8, !tbaa !79
  %4 = getelementptr inbounds nuw i8, ptr %0, i64 108
  store i32 0, ptr %4, align 4, !tbaa !80
  %5 = getelementptr inbounds nuw i8, ptr %0, i64 120
  br label %6

6:                                                ; preds = %1, %6
  %7 = phi i32 [ 0, %1 ], [ %14, %6 ]
  %.09 = phi i32 [ 0, %1 ], [ %15, %6 ]
  %8 = shl i32 %7, 8
  %9 = load ptr, ptr %5, align 8, !tbaa !14
  %10 = getelementptr inbounds nuw i8, ptr %9, i64 8
  %11 = load ptr, ptr %10, align 8, !tbaa !81
  %12 = tail call zeroext i8 %11(ptr noundef %9) #13
  %13 = zext i8 %12 to i32
  %14 = or disjoint i32 %8, %13
  store i32 %14, ptr %4, align 4, !tbaa !80
  %15 = add nuw nsw i32 %.09, 1
  %exitcond.not = icmp eq i32 %15, 4
  br i1 %exitcond.not, label %16, label %6, !llvm.loop !84

16:                                               ; preds = %6
  %17 = icmp ne i32 %14, -1
  %18 = zext i1 %17 to i32
  ret i32 %18
}